(lp0
S'nm-tRNA-SerTGA-AGA-chr11-8'
p1
aS'nm-tRNA-Tyr-GTA-chr1-125'
p2
aS'nm-tRNA-Tyr-GTA-chr10-3'
p3
aS'nm-tRNA-Tyr-GTA-chr14-8'
p4
aS'nm-tRNA-Tyr-GTA-chr21-2'
p5
aS'nm-tRNA-Tyr-GTA-chr9-10'
p6
aS'nm-tRNA-Tyr-GTA-chr9-4'
p7
aS'nmt-tRNA-Leu-TAA-1-1'
p8
aS'nmt-tRNA-Leu-TAA-4-1'
p9
aS'nmt-tRNA-Val-TAC-1-1'
p10
aS'tRNA-Ala-AGC-1-1'
p11
aS'tRNA-Ala-AGC-11-1'
p12
aS'tRNA-Ala-AGC-15-1'
p13
aS'tRNA-Ala-AGC-2-1'
p14
aS'tRNA-Ala-AGC-2-2'
p15
aS'tRNA-Ala-AGC-22-1'
p16
aS'tRNA-Ala-AGC-23-1'
p17
aS'tRNA-Ala-AGC-3-1'
p18
aS'tRNA-Ala-AGC-4-1'
p19
aS'tRNA-Ala-AGC-5-1'
p20
aS'tRNA-Ala-AGC-6-1'
p21
aS'tRNA-Ala-AGC-7-1'
p22
aS'tRNA-Ala-AGC-8-1'
p23
aS'tRNA-Ala-AGC-8-2'
p24
aS'tRNA-Ala-AGC-9-1'
p25
aS'tRNA-Ala-AGC-9-2'
p26
aS'tRNA-Ala-ATC-chr6-102'
p27
aS'tRNA-Ala-CGC-1-1'
p28
aS'tRNA-Ala-CGC-2-1'
p29
aS'tRNA-Ala-CGC-3-1'
p30
aS'tRNA-Ala-CGC-4-1'
p31
aS'tRNA-Ala-CGC-5-1'
p32
aS'tRNA-Ala-TGC-1-1'
p33
aS'tRNA-Ala-TGC-2-1'
p34
aS'tRNA-Ala-TGC-3-1'
p35
aS'tRNA-Ala-TGC-3-2'
p36
aS'tRNA-Ala-TGC-4-1'
p37
aS'tRNA-Ala-TGC-5-1'
p38
aS'tRNA-Ala-TGC-6-1'
p39
aS'tRNA-Ala-TGC-7-1'
p40
aS'tRNA-Ala-TGC-8-1'
p41
aS'tRNA-Ala-TGC-9-1'
p42
aS'tRNA-Arg-ACG-1-1'
p43
aS'tRNA-Arg-ACG-1-2'
p44
aS'tRNA-Arg-ACG-1-3'
p45
aS'tRNA-Arg-ACG-2-1'
p46
aS'tRNA-Arg-ACG-2-2'
p47
aS'tRNA-Arg-ACG-2-3'
p48
aS'tRNA-Arg-ACG-2-4'
p49
aS'tRNA-Arg-CCG-1-1'
p50
aS'tRNA-Arg-CCG-1-2'
p51
aS'tRNA-Arg-CCG-1-3'
p52
aS'tRNA-Arg-CCG-2-1'
p53
aS'tRNA-Arg-CCT-1-1'
p54
aS'tRNA-Arg-CCT-2-1'
p55
aS'tRNA-Arg-CCT-3-1'
p56
aS'tRNA-Arg-CCT-4-1'
p57
aS'tRNA-Arg-CCT-5-1'
p58
aS'tRNA-Arg-TCG-1-1'
p59
aS'tRNA-Arg-TCG-2-1'
p60
aS'tRNA-Arg-TCG-3-1'
p61
aS'tRNA-Arg-TCG-4-1'
p62
aS'tRNA-Arg-TCG-5-1'
p63
aS'tRNA-Arg-TCG-6-1'
p64
aS'tRNA-Arg-TCT-1-1'
p65
aS'tRNA-Arg-TCT-2-1'
p66
aS'tRNA-Arg-TCT-3-1'
p67
aS'tRNA-Arg-TCT-3-2'
p68
aS'tRNA-Arg-TCT-4-1'
p69
aS'tRNA-Arg-TCT-5-1'
p70
aS'tRNA-Asn-ATT-1-1'
p71
aS'tRNA-Asn-GTT-1-1'
p72
aS'tRNA-Asn-GTT-10-1'
p73
aS'tRNA-Asn-GTT-11-1'
p74
aS'tRNA-Asn-GTT-11-2'
p75
aS'tRNA-Asn-GTT-12-1'
p76
aS'tRNA-Asn-GTT-13-1'
p77
aS'tRNA-Asn-GTT-15-1'
p78
aS'tRNA-Asn-GTT-16-1'
p79
aS'tRNA-Asn-GTT-16-2'
p80
aS'tRNA-Asn-GTT-16-3'
p81
aS'tRNA-Asn-GTT-16-4'
p82
aS'tRNA-Asn-GTT-16-5'
p83
aS'tRNA-Asn-GTT-17-1'
p84
aS'tRNA-Asn-GTT-18-1'
p85
aS'tRNA-Asn-GTT-2-1'
p86
aS'tRNA-Asn-GTT-2-2'
p87
aS'tRNA-Asn-GTT-2-3'
p88
aS'tRNA-Asn-GTT-2-4'
p89
aS'tRNA-Asn-GTT-2-5'
p90
aS'tRNA-Asn-GTT-2-6'
p91
aS'tRNA-Asn-GTT-20-1'
p92
aS'tRNA-Asn-GTT-21-1'
p93
aS'tRNA-Asn-GTT-3-1'
p94
aS'tRNA-Asn-GTT-3-2'
p95
aS'tRNA-Asn-GTT-4-1'
p96
aS'tRNA-Asn-GTT-5-1'
p97
aS'tRNA-Asn-GTT-6-1'
p98
aS'tRNA-Asn-GTT-7-1'
p99
aS'tRNA-Asn-GTT-8-1'
p100
aS'tRNA-Asn-GTT-9-1'
p101
aS'tRNA-Asn-GTT-9-2'
p102
aS'tRNA-Asp-GTC-1-1'
p103
aS'tRNA-Asp-GTC-2-1'
p104
aS'tRNA-Asp-GTC-2-10'
p105
aS'tRNA-Asp-GTC-2-11'
p106
aS'tRNA-Asp-GTC-2-2'
p107
aS'tRNA-Asp-GTC-2-3'
p108
aS'tRNA-Asp-GTC-2-4'
p109
aS'tRNA-Asp-GTC-2-5'
p110
aS'tRNA-Asp-GTC-2-6'
p111
aS'tRNA-Asp-GTC-2-7'
p112
aS'tRNA-Asp-GTC-2-8'
p113
aS'tRNA-Asp-GTC-2-9'
p114
aS'tRNA-Asp-GTC-3-1'
p115
aS'tRNA-Asp-GTC-4-1'
p116
aS'tRNA-Asp-GTC-5-1'
p117
aS'tRNA-Cys-ACA-1-1'
p118
aS'tRNA-Cys-GCA-1-1'
p119
aS'tRNA-Cys-GCA-10-1'
p120
aS'tRNA-Cys-GCA-11-1'
p121
aS'tRNA-Cys-GCA-12-1'
p122
aS'tRNA-Cys-GCA-13-1'
p123
aS'tRNA-Cys-GCA-14-1'
p124
aS'tRNA-Cys-GCA-15-1'
p125
aS'tRNA-Cys-GCA-16-1'
p126
aS'tRNA-Cys-GCA-17-1'
p127
aS'tRNA-Cys-GCA-18-1'
p128
aS'tRNA-Cys-GCA-19-1'
p129
aS'tRNA-Cys-GCA-2-1'
p130
aS'tRNA-Cys-GCA-2-2'
p131
aS'tRNA-Cys-GCA-2-3'
p132
aS'tRNA-Cys-GCA-2-4'
p133
aS'tRNA-Cys-GCA-20-1'
p134
aS'tRNA-Cys-GCA-21-1'
p135
aS'tRNA-Cys-GCA-22-1'
p136
aS'tRNA-Cys-GCA-23-1'
p137
aS'tRNA-Cys-GCA-24-1'
p138
aS'tRNA-Cys-GCA-25-1'
p139
aS'tRNA-Cys-GCA-3-1'
p140
aS'tRNA-Cys-GCA-4-1'
p141
aS'tRNA-Cys-GCA-5-1'
p142
aS'tRNA-Cys-GCA-6-1'
p143
aS'tRNA-Cys-GCA-7-1'
p144
aS'tRNA-Cys-GCA-8-1'
p145
aS'tRNA-Cys-GCA-9-1'
p146
aS'tRNA-Cys-GCA-9-2'
p147
aS'tRNA-Cys-GCA-9-3'
p148
aS'tRNA-Cys-GCA-9-4'
p149
aS'tRNA-Cys-GCA-chr11-21'
p150
aS'tRNA-Cys-GCA-chr5-2'
p151
aS'tRNA-Gln-CAG-chr9-3'
p152
aS'tRNA-Gln-CTG-1-1'
p153
aS'tRNA-Gln-CTG-1-2'
p154
aS'tRNA-Gln-CTG-1-3'
p155
aS'tRNA-Gln-CTG-1-4'
p156
aS'tRNA-Gln-CTG-1-5'
p157
aS'tRNA-Gln-CTG-10-1'
p158
aS'tRNA-Gln-CTG-11-1'
p159
aS'tRNA-Gln-CTG-12-1'
p160
aS'tRNA-Gln-CTG-2-1'
p161
aS'tRNA-Gln-CTG-3-1'
p162
aS'tRNA-Gln-CTG-3-2'
p163
aS'tRNA-Gln-CTG-4-1'
p164
aS'tRNA-Gln-CTG-4-2'
p165
aS'tRNA-Gln-CTG-5-1'
p166
aS'tRNA-Gln-CTG-6-1'
p167
aS'tRNA-Gln-CTG-7-1'
p168
aS'tRNA-Gln-CTG-8-1'
p169
aS'tRNA-Gln-CTG-8-2'
p170
aS'tRNA-Gln-CTG-9-1'
p171
aS'tRNA-Gln-CTG-chr19-4'
p172
aS'tRNA-Gln-TTG-1-1'
p173
aS'tRNA-Gln-TTG-2-1'
p174
aS'tRNA-Gln-TTG-3-1'
p175
aS'tRNA-Gln-TTG-3-2'
p176
aS'tRNA-Gln-TTG-3-3'
p177
aS'tRNA-Gln-TTG-4-1'
p178
aS'tRNA-Glu-CTC-1-1'
p179
aS'tRNA-Glu-CTC-1-2'
p180
aS'tRNA-Glu-CTC-1-3'
p181
aS'tRNA-Glu-CTC-1-4'
p182
aS'tRNA-Glu-CTC-1-5'
p183
aS'tRNA-Glu-CTC-1-6'
p184
aS'tRNA-Glu-CTC-1-7'
p185
aS'tRNA-Glu-CTC-2-1'
p186
aS'tRNA-Glu-CTC-3-1'
p187
aS'tRNA-Glu-TTC-1-1'
p188
aS'tRNA-Glu-TTC-1-2'
p189
aS'tRNA-Glu-TTC-10-1'
p190
aS'tRNA-Glu-TTC-2-1'
p191
aS'tRNA-Glu-TTC-2-2'
p192
aS'tRNA-Glu-TTC-3-1'
p193
aS'tRNA-Glu-TTC-4-1'
p194
aS'tRNA-Glu-TTC-4-2'
p195
aS'tRNA-Glu-TTC-5-1'
p196
aS'tRNA-Glu-TTC-6-1'
p197
aS'tRNA-Glu-TTC-7-1'
p198
aS'tRNA-Glu-TTC-8-1'
p199
aS'tRNA-Glu-TTC-9-1'
p200
aS'tRNA-Gly-CCC-1-1'
p201
aS'tRNA-Gly-CCC-1-2'
p202
aS'tRNA-Gly-CCC-2-1'
p203
aS'tRNA-Gly-CCC-2-2'
p204
aS'tRNA-Gly-CCC-3-1'
p205
aS'tRNA-Gly-CCC-4-1'
p206
aS'tRNA-Gly-CCC-5-1'
p207
aS'tRNA-Gly-CCC-6-1'
p208
aS'tRNA-Gly-CCC-7-1'
p209
aS'tRNA-Gly-CCC-chr1-15'
p210
aS'tRNA-Gly-CCC-chr1-18'
p211
aS'tRNA-Gly-GCC-1-1'
p212
aS'tRNA-Gly-GCC-1-2'
p213
aS'tRNA-Gly-GCC-1-3'
p214
aS'tRNA-Gly-GCC-1-4'
p215
aS'tRNA-Gly-GCC-1-5'
p216
aS'tRNA-Gly-GCC-2-1'
p217
aS'tRNA-Gly-GCC-2-2'
p218
aS'tRNA-Gly-GCC-2-3'
p219
aS'tRNA-Gly-GCC-2-4'
p220
aS'tRNA-Gly-GCC-2-5'
p221
aS'tRNA-Gly-GCC-2-6'
p222
aS'tRNA-Gly-GCC-3-1'
p223
aS'tRNA-Gly-GCC-4-1'
p224
aS'tRNA-Gly-GCC-5-1'
p225
aS'tRNA-Gly-TCC-1-1'
p226
aS'tRNA-Gly-TCC-2-1'
p227
aS'tRNA-Gly-TCC-2-2'
p228
aS'tRNA-Gly-TCC-2-3'
p229
aS'tRNA-Gly-TCC-2-4'
p230
aS'tRNA-Gly-TCC-2-5'
p231
aS'tRNA-Gly-TCC-2-6'
p232
aS'tRNA-Gly-TCC-3-1'
p233
aS'tRNA-Gly-TCC-4-1'
p234
aS'tRNA-His-GTG-1-1'
p235
aS'tRNA-His-GTG-1-2'
p236
aS'tRNA-His-GTG-1-3'
p237
aS'tRNA-His-GTG-1-4'
p238
aS'tRNA-His-GTG-1-5'
p239
aS'tRNA-His-GTG-1-6'
p240
aS'tRNA-His-GTG-1-7'
p241
aS'tRNA-His-GTG-1-8'
p242
aS'tRNA-His-GTG-1-9'
p243
aS'tRNA-His-GTG-2-1'
p244
aS'tRNA-Ile-AAT-1-1'
p245
aS'tRNA-Ile-AAT-2-1'
p246
aS'tRNA-Ile-AAT-3-1'
p247
aS'tRNA-Ile-AAT-4-1'
p248
aS'tRNA-Ile-AAT-5-1'
p249
aS'tRNA-Ile-AAT-5-2'
p250
aS'tRNA-Ile-AAT-5-3'
p251
aS'tRNA-Ile-AAT-5-4'
p252
aS'tRNA-Ile-AAT-5-5'
p253
aS'tRNA-Ile-AAT-6-1'
p254
aS'tRNA-Ile-AAT-7-1'
p255
aS'tRNA-Ile-AAT-7-2'
p256
aS'tRNA-Ile-AAT-8-1'
p257
aS'tRNA-Ile-AAT-9-1'
p258
aS'tRNA-Ile-GAT-1-1'
p259
aS'tRNA-Ile-GAT-1-2'
p260
aS'tRNA-Ile-GAT-1-3'
p261
aS'tRNA-Ile-TAT-1-1'
p262
aS'tRNA-Ile-TAT-2-1'
p263
aS'tRNA-Ile-TAT-2-2'
p264
aS'tRNA-Ile-TAT-2-3'
p265
aS'tRNA-Ile-TAT-3-1'
p266
aS'tRNA-Leu-AAG-1-1'
p267
aS'tRNA-Leu-AAG-1-2'
p268
aS'tRNA-Leu-AAG-1-3'
p269
aS'tRNA-Leu-AAG-2-1'
p270
aS'tRNA-Leu-AAG-2-2'
p271
aS'tRNA-Leu-AAG-2-3'
p272
aS'tRNA-Leu-AAG-2-4'
p273
aS'tRNA-Leu-AAG-3-1'
p274
aS'tRNA-Leu-AAG-4-1'
p275
aS'tRNA-Leu-AAG-5-1'
p276
aS'tRNA-Leu-AAG-6-1'
p277
aS'tRNA-Leu-AAG-7-1'
p278
aS'tRNA-Leu-CAA-1-1'
p279
aS'tRNA-Leu-CAA-1-2'
p280
aS'tRNA-Leu-CAA-2-1'
p281
aS'tRNA-Leu-CAA-3-1'
p282
aS'tRNA-Leu-CAA-4-1'
p283
aS'tRNA-Leu-CAA-5-1'
p284
aS'tRNA-Leu-CAA-6-1'
p285
aS'tRNA-Leu-CAG-1-1'
p286
aS'tRNA-Leu-CAG-1-2'
p287
aS'tRNA-Leu-CAG-1-3'
p288
aS'tRNA-Leu-CAG-1-4'
p289
aS'tRNA-Leu-CAG-1-5'
p290
aS'tRNA-Leu-CAG-1-6'
p291
aS'tRNA-Leu-CAG-1-7'
p292
aS'tRNA-Leu-CAG-2-1'
p293
aS'tRNA-Leu-CAG-2-2'
p294
aS'tRNA-Leu-CAG-chr9-7'
p295
aS'tRNA-Leu-TAA-1-1'
p296
aS'tRNA-Leu-TAA-2-1'
p297
aS'tRNA-Leu-TAA-3-1'
p298
aS'tRNA-Leu-TAA-4-1'
p299
aS'tRNA-Leu-TAA-5-1'
p300
aS'tRNA-Leu-TAG-1-1'
p301
aS'tRNA-Leu-TAG-2-1'
p302
aS'tRNA-Leu-TAG-3-1'
p303
aS'tRNA-Lys-CTT-1-1'
p304
aS'tRNA-Lys-CTT-1-2'
p305
aS'tRNA-Lys-CTT-10-1'
p306
aS'tRNA-Lys-CTT-11-1'
p307
aS'tRNA-Lys-CTT-12-1'
p308
aS'tRNA-Lys-CTT-14-1'
p309
aS'tRNA-Lys-CTT-16-1'
p310
aS'tRNA-Lys-CTT-2-1'
p311
aS'tRNA-Lys-CTT-2-2'
p312
aS'tRNA-Lys-CTT-2-3'
p313
aS'tRNA-Lys-CTT-2-4'
p314
aS'tRNA-Lys-CTT-2-5'
p315
aS'tRNA-Lys-CTT-3-1'
p316
aS'tRNA-Lys-CTT-4-1'
p317
aS'tRNA-Lys-CTT-5-1'
p318
aS'tRNA-Lys-CTT-6-1'
p319
aS'tRNA-Lys-CTT-7-1'
p320
aS'tRNA-Lys-CTT-8-1'
p321
aS'tRNA-Lys-CTT-chr15-5'
p322
aS'tRNA-Lys-CTT-chr16-1'
p323
aS'tRNA-Lys-CTT-chr7-30'
p324
aS'tRNA-Lys-TTT-1-1'
p325
aS'tRNA-Lys-TTT-13-1'
p326
aS'tRNA-Lys-TTT-14-1'
p327
aS'tRNA-Lys-TTT-2-1'
p328
aS'tRNA-Lys-TTT-3-1'
p329
aS'tRNA-Lys-TTT-3-2'
p330
aS'tRNA-Lys-TTT-3-3'
p331
aS'tRNA-Lys-TTT-3-4'
p332
aS'tRNA-Lys-TTT-3-5'
p333
aS'tRNA-Lys-TTT-4-1'
p334
aS'tRNA-Lys-TTT-5-1'
p335
aS'tRNA-Lys-TTT-6-1'
p336
aS'tRNA-Lys-TTT-7-1'
p337
aS'tRNA-Lys-TTT-8-1'
p338
aS'tRNA-Lys-TTT-9-1'
p339
aS'tRNA-Met-CAT-1-1'
p340
aS'tRNA-Met-CAT-2-1'
p341
aS'tRNA-Met-CAT-3-1'
p342
aS'tRNA-Met-CAT-3-2'
p343
aS'tRNA-Met-CAT-4-1'
p344
aS'tRNA-Met-CAT-4-2'
p345
aS'tRNA-Met-CAT-4-3'
p346
aS'tRNA-Met-CAT-5-1'
p347
aS'tRNA-Met-CAT-6-1'
p348
aS'tRNA-Phe-GAA-1-1'
p349
aS'tRNA-Phe-GAA-1-2'
p350
aS'tRNA-Phe-GAA-1-3'
p351
aS'tRNA-Phe-GAA-1-4'
p352
aS'tRNA-Phe-GAA-1-5'
p353
aS'tRNA-Phe-GAA-1-6'
p354
aS'tRNA-Phe-GAA-10-1'
p355
aS'tRNA-Phe-GAA-2-1'
p356
aS'tRNA-Phe-GAA-3-1'
p357
aS'tRNA-Phe-GAA-4-1'
p358
aS'tRNA-Phe-GAA-5-1'
p359
aS'tRNA-Phe-GAA-6-1'
p360
aS'tRNA-Pro-AGG-1-1'
p361
aS'tRNA-Pro-AGG-2-1'
p362
aS'tRNA-Pro-AGG-2-2'
p363
aS'tRNA-Pro-AGG-2-3'
p364
aS'tRNA-Pro-AGG-2-4'
p365
aS'tRNA-Pro-AGG-2-5'
p366
aS'tRNA-Pro-AGG-2-6'
p367
aS'tRNA-Pro-AGG-2-7'
p368
aS'tRNA-Pro-AGG-2-8'
p369
aS'tRNA-Pro-AGG-3-1'
p370
aS'tRNA-Pro-CGG-1-1'
p371
aS'tRNA-Pro-CGG-1-2'
p372
aS'tRNA-Pro-CGG-1-3'
p373
aS'tRNA-Pro-CGG-2-1'
p374
aS'tRNA-Pro-TGG-1-1'
p375
aS'tRNA-Pro-TGG-2-1'
p376
aS'tRNA-Pro-TGG-3-1'
p377
aS'tRNA-Pro-TGG-3-2'
p378
aS'tRNA-Pro-TGG-3-3'
p379
aS'tRNA-Pro-TGG-3-4'
p380
aS'tRNA-Pro-TGG-3-5'
p381
aS'tRNA-SeC-TCA-1-1'
p382
aS'tRNA-SeC-TCA-2-1'
p383
aS'tRNA-Ser-ACT-1-1'
p384
aS'tRNA-Ser-AGA-1-1'
p385
aS'tRNA-Ser-AGA-2-1'
p386
aS'tRNA-Ser-AGA-2-2'
p387
aS'tRNA-Ser-AGA-2-3'
p388
aS'tRNA-Ser-AGA-2-4'
p389
aS'tRNA-Ser-AGA-2-5'
p390
aS'tRNA-Ser-AGA-2-6'
p391
aS'tRNA-Ser-AGA-3-1'
p392
aS'tRNA-Ser-AGA-4-1'
p393
aS'tRNA-Ser-CGA-1-1'
p394
aS'tRNA-Ser-CGA-2-1'
p395
aS'tRNA-Ser-CGA-3-1'
p396
aS'tRNA-Ser-CGA-4-1'
p397
aS'tRNA-Ser-GCT-1-1'
p398
aS'tRNA-Ser-GCT-2-1'
p399
aS'tRNA-Ser-GCT-3-1'
p400
aS'tRNA-Ser-GCT-4-1'
p401
aS'tRNA-Ser-GCT-4-2'
p402
aS'tRNA-Ser-GCT-4-3'
p403
aS'tRNA-Ser-GCT-5-1'
p404
aS'tRNA-Ser-GCT-6-1'
p405
aS'tRNA-Ser-TGA-1-1'
p406
aS'tRNA-Ser-TGA-2-1'
p407
aS'tRNA-Ser-TGA-3-1'
p408
aS'tRNA-Ser-TGA-4-1'
p409
aS'tRNA-Thr-AGT-1-1'
p410
aS'tRNA-Thr-AGT-1-2'
p411
aS'tRNA-Thr-AGT-1-3'
p412
aS'tRNA-Thr-AGT-2-1'
p413
aS'tRNA-Thr-AGT-2-2'
p414
aS'tRNA-Thr-AGT-3-1'
p415
aS'tRNA-Thr-AGT-4-1'
p416
aS'tRNA-Thr-AGT-5-1'
p417
aS'tRNA-Thr-AGT-6-1'
p418
aS'tRNA-Thr-CGT-1-1'
p419
aS'tRNA-Thr-CGT-2-1'
p420
aS'tRNA-Thr-CGT-3-1'
p421
aS'tRNA-Thr-CGT-4-1'
p422
aS'tRNA-Thr-CGT-6-1'
p423
aS'tRNA-Thr-TGT-1-1'
p424
aS'tRNA-Thr-TGT-2-1'
p425
aS'tRNA-Thr-TGT-3-1'
p426
aS'tRNA-Thr-TGT-4-1'
p427
aS'tRNA-Thr-TGT-5-1'
p428
aS'tRNA-Thr-TGT-6-1'
p429
aS'tRNA-Trp-CCA-1-1'
p430
aS'tRNA-Trp-CCA-2-1'
p431
aS'tRNA-Trp-CCA-3-1'
p432
aS'tRNA-Trp-CCA-3-2'
p433
aS'tRNA-Trp-CCA-3-3'
p434
aS'tRNA-Trp-CCA-4-1'
p435
aS'tRNA-Trp-CCA-5-1'
p436
aS'tRNA-Trp-CCA-chr7-31'
p437
aS'tRNA-Tyr-GTA-1-1'
p438
aS'tRNA-Tyr-GTA-11-1'
p439
aS'tRNA-Tyr-GTA-2-1'
p440
aS'tRNA-Tyr-GTA-3-1'
p441
aS'tRNA-Tyr-GTA-4-1'
p442
aS'tRNA-Tyr-GTA-5-1'
p443
aS'tRNA-Tyr-GTA-5-2'
p444
aS'tRNA-Tyr-GTA-5-3'
p445
aS'tRNA-Tyr-GTA-5-4'
p446
aS'tRNA-Tyr-GTA-5-5'
p447
aS'tRNA-Tyr-GTA-6-1'
p448
aS'tRNA-Tyr-GTA-7-1'
p449
aS'tRNA-Tyr-GTA-8-1'
p450
aS'tRNA-Tyr-GTA-9-1'
p451
aS'tRNA-Und-NNN-3-1'
p452
aS'tRNA-Und-NNN-4-1'
p453
aS'tRNA-Val-AAC-1-1'
p454
aS'tRNA-Val-AAC-1-2'
p455
aS'tRNA-Val-AAC-1-3'
p456
aS'tRNA-Val-AAC-1-4'
p457
aS'tRNA-Val-AAC-1-5'
p458
aS'tRNA-Val-AAC-2-1'
p459
aS'tRNA-Val-AAC-3-1'
p460
aS'tRNA-Val-AAC-4-1'
p461
aS'tRNA-Val-AAC-5-1'
p462
aS'tRNA-Val-AAC-6-1'
p463
aS'tRNA-Val-CAC-1-1'
p464
aS'tRNA-Val-CAC-1-2'
p465
aS'tRNA-Val-CAC-1-3'
p466
aS'tRNA-Val-CAC-1-4'
p467
aS'tRNA-Val-CAC-1-5'
p468
aS'tRNA-Val-CAC-1-6'
p469
aS'tRNA-Val-CAC-10-1'
p470
aS'tRNA-Val-CAC-11-1'
p471
aS'tRNA-Val-CAC-2-1'
p472
aS'tRNA-Val-CAC-3-1'
p473
aS'tRNA-Val-CAC-4-1'
p474
aS'tRNA-Val-CAC-5-1'
p475
aS'tRNA-Val-CAC-6-1'
p476
aS'tRNA-Val-CAC-7-1'
p477
aS'tRNA-Val-CAC-8-1'
p478
aS'tRNA-Val-TAC-1-1'
p479
aS'tRNA-Val-TAC-1-2'
p480
aS'tRNA-Val-TAC-2-1'
p481
aS'tRNA-Val-TAC-3-1'
p482
aS'tRNA-Val-TAC-4-1'
p483
aS'tRNA-iMet-CAT-1-1'
p484
aS'tRNA-iMet-CAT-1-2'
p485
aS'tRNA-iMet-CAT-1-3'
p486
aS'tRNA-iMet-CAT-1-4'
p487
aS'tRNA-iMet-CAT-1-5'
p488
aS'tRNA-iMet-CAT-1-6'
p489
aS'tRNA-iMet-CAT-1-7'
p490
aS'tRNA-iMet-CAT-1-8'
p491
aS'tRNA-iMet-CAT-2-1'
p492
a.